ARM GAS  C:\Users\admin\AppData\Local\Temp\cclSroOj.s 			page 1


   1              		.cpu cortex-m4
   2              		.eabi_attribute 27, 1
   3              		.eabi_attribute 28, 1
   4              		.eabi_attribute 20, 1
   5              		.eabi_attribute 21, 1
   6              		.eabi_attribute 23, 3
   7              		.eabi_attribute 24, 1
   8              		.eabi_attribute 25, 1
   9              		.eabi_attribute 26, 1
  10              		.eabi_attribute 30, 2
  11              		.eabi_attribute 34, 1
  12              		.eabi_attribute 18, 4
  13              		.file	"audio_processing.c"
  14              		.text
  15              	.Ltext0:
  16              		.cfi_sections	.debug_frame
  17              		.section	.text.detectWhistle,"ax",%progbits
  18              		.align	1
  19              		.p2align 4,,15
  20              		.global	detectWhistle
  21              		.syntax unified
  22              		.thumb
  23              		.thumb_func
  24              		.fpu fpv4-sp-d16
  25              		.type	detectWhistle, %function
  26              	detectWhistle:
  27              	.LFB290:
  28              		.file 1 "audio_processing.c"
  29              		.loc 1 30 0
  30              		.cfi_startproc
  31              		@ args = 0, pretend = 0, frame = 16
  32              		@ frame_needed = 0, uses_anonymous_args = 0
  33 0000 10B5     		push	{r4, lr}
  34              		.cfi_def_cfa_offset 8
  35              		.cfi_offset 4, -8
  36              		.cfi_offset 14, -4
  37 0002 244C     		ldr	r4, .L18
  38 0004 244B     		ldr	r3, .L18+4
  39 0006 2268     		ldr	r2, [r4]
  40 0008 84B0     		sub	sp, sp, #16
  41              		.cfi_def_cfa_offset 24
  42              		.loc 1 32 0
  43 000a 0021     		movs	r1, #0
  44              		.loc 1 30 0
  45 000c 0392     		str	r2, [sp, #12]
  46              		.loc 1 33 0
  47 000e 0022     		movs	r2, #0
  48              		.loc 1 32 0
  49 0010 0291     		str	r1, [sp, #8]	@ float
  50 0012 03F50060 		add	r0, r3, #2048
  51              		.loc 1 33 0
  52 0016 ADF80620 		strh	r2, [sp, #6]	@ movhi
  53              	.LVL0:
  54 001a 4FF40072 		mov	r2, #512
  55              	.LVL1:
  56              	.L4:
  57              	.LBB38:
ARM GAS  C:\Users\admin\AppData\Local\Temp\cclSroOj.s 			page 2


  58              		.loc 1 36 0
  59 001e F3EC017A 		vldmia.32	r3!, {s15}
  60 0022 9DED027A 		vldr.32	s14, [sp, #8]
  61 0026 F4EEC77A 		vcmpe.f32	s15, s14
  62 002a F1EE10FA 		vmrs	APSR_nzcv, FPSCR
  63 002e 91B2     		uxth	r1, r2
  64              	.LVL2:
  65              		.loc 1 37 0
  66 0030 C4BF     		itt	gt
  67 0032 CDED027A 		vstrgt.32	s15, [sp, #8]
  68              		.loc 1 38 0
  69 0036 ADF80610 		strhgt	r1, [sp, #6]	@ movhi
  70              	.LVL3:
  71              		.loc 1 35 0
  72 003a 8342     		cmp	r3, r0
  73 003c 02F10102 		add	r2, r2, #1
  74              	.LVL4:
  75 0040 EDD1     		bne	.L4
  76              	.LBE38:
  77              		.loc 1 42 0
  78 0042 BDF80630 		ldrh	r3, [sp, #6]
  79 0046 B3F5617F 		cmp	r3, #900
  80 004a 08D8     		bhi	.L5
  81              		.loc 1 42 0 is_stmt 0 discriminator 1
  82 004c 9DED027A 		vldr.32	s14, [sp, #8]
  83 0050 DFED127A 		vldr.32	s15, .L18+8
  84 0054 B4EEE77A 		vcmpe.f32	s14, s15
  85 0058 F1EE10FA 		vmrs	APSR_nzcv, FPSCR
  86 005c 0DDC     		bgt	.L17
  87              	.L5:
  88              		.loc 1 46 0 is_stmt 1
  89 005e 0020     		movs	r0, #0
  90 0060 FFF7FEFF 		bl	left_motor_set_speed
  91              	.LVL5:
  92              		.loc 1 47 0
  93 0064 039A     		ldr	r2, [sp, #12]
  94 0066 2368     		ldr	r3, [r4]
  95 0068 9A42     		cmp	r2, r3
  96 006a 08BF     		it	eq
  97 006c 0020     		moveq	r0, #0
  98 006e 0FD1     		bne	.L15
  99              	.L14:
 100              		.loc 1 49 0
 101 0070 04B0     		add	sp, sp, #16
 102              		.cfi_remember_state
 103              		.cfi_def_cfa_offset 8
 104              		@ sp needed
 105 0072 BDE81040 		pop	{r4, lr}
 106              		.cfi_restore 14
 107              		.cfi_restore 4
 108              		.cfi_def_cfa_offset 0
 109              		.loc 1 47 0
 110 0076 FFF7FEBF 		b	right_motor_set_speed
 111              	.LVL6:
 112              	.L17:
 113              		.cfi_restore_state
 114              		.loc 1 43 0
ARM GAS  C:\Users\admin\AppData\Local\Temp\cclSroOj.s 			page 3


 115 007a 4FF4FA70 		mov	r0, #500
 116 007e FFF7FEFF 		bl	left_motor_set_speed
 117              	.LVL7:
 118              		.loc 1 44 0
 119 0082 039A     		ldr	r2, [sp, #12]
 120 0084 2368     		ldr	r3, [r4]
 121 0086 9A42     		cmp	r2, r3
 122 0088 08BF     		it	eq
 123 008a 4FF4FA70 		moveq	r0, #500
 124 008e EFD0     		beq	.L14
 125              	.L15:
 126              		.loc 1 47 0
 127 0090 FFF7FEFF 		bl	__stack_chk_fail
 128              	.LVL8:
 129              	.L19:
 130              		.align	2
 131              	.L18:
 132 0094 00000000 		.word	__stack_chk_guard
 133 0098 00080000 		.word	micFront_output+2048
 134 009c 00606A47 		.word	1198153728
 135              		.cfi_endproc
 136              	.LFE290:
 137              		.size	detectWhistle, .-detectWhistle
 138              		.section	.text.processAudioData,"ax",%progbits
 139              		.align	1
 140              		.p2align 4,,15
 141              		.global	processAudioData
 142              		.syntax unified
 143              		.thumb
 144              		.thumb_func
 145              		.fpu fpv4-sp-d16
 146              		.type	processAudioData, %function
 147              	processAudioData:
 148              	.LFB291:
 149              		.loc 1 60 0
 150              		.cfi_startproc
 151              		@ args = 0, pretend = 0, frame = 16
 152              		@ frame_needed = 0, uses_anonymous_args = 0
 153              	.LVL9:
 154 0000 2DE9F04F 		push	{r4, r5, r6, r7, r8, r9, r10, fp, lr}
 155              		.cfi_def_cfa_offset 36
 156              		.cfi_offset 4, -36
 157              		.cfi_offset 5, -32
 158              		.cfi_offset 6, -28
 159              		.cfi_offset 7, -24
 160              		.cfi_offset 8, -20
 161              		.cfi_offset 9, -16
 162              		.cfi_offset 10, -12
 163              		.cfi_offset 11, -8
 164              		.cfi_offset 14, -4
 165 0004 6C4B     		ldr	r3, .L32
 166 0006 6D4A     		ldr	r2, .L32+4
 167 0008 1C68     		ldr	r4, [r3]
 168 000a DFF8C091 		ldr	r9, .L32+20
 169 000e 6C4B     		ldr	r3, .L32+8
 170 0010 DFF8BC81 		ldr	r8, .L32+24
 171 0014 DFF8BCE1 		ldr	lr, .L32+28
ARM GAS  C:\Users\admin\AppData\Local\Temp\cclSroOj.s 			page 4


 172              		.loc 1 79 0
 173 0018 DFED6A7A 		vldr.32	s15, .L32+12
 174              		.loc 1 60 0
 175 001c 85B0     		sub	sp, sp, #20
 176              		.cfi_def_cfa_offset 56
 177              		.loc 1 60 0
 178 001e 0394     		str	r4, [sp, #12]
 179 0020 0191     		str	r1, [sp, #4]
 180 0022 03E0     		b	.L23
 181              	.LVL10:
 182              	.L21:
 183              		.loc 1 90 0
 184 0024 1988     		ldrh	r1, [r3]
 185 0026 B1F5806F 		cmp	r1, #1024
 186 002a 65D2     		bcs	.L29
 187              	.L23:
 188              		.loc 1 74 0
 189 002c 1588     		ldrh	r5, [r2]
 190 002e 1C88     		ldrh	r4, [r3]
 191              		.loc 1 75 0
 192 0030 1188     		ldrh	r1, [r2]
 193              		.loc 1 74 0
 194 0032 00EBC505 		add	r5, r0, r5, lsl #3
 195 0036 09EBC404 		add	r4, r9, r4, lsl #3
 196 003a B5F90250 		ldrsh	r5, [r5, #2]
 197 003e 07EE105A 		vmov	s14, r5	@ int
 198 0042 B8EEC77A 		vcvt.f32.s32	s14, s14
 199              		.loc 1 75 0
 200 0046 89B2     		uxth	r1, r1
 201              		.loc 1 74 0
 202 0048 84ED007A 		vstr.32	s14, [r4]
 203              		.loc 1 75 0
 204 004c 30F93110 		ldrsh	r1, [r0, r1, lsl #3]
 205 0050 1C88     		ldrh	r4, [r3]
 206 0052 07EE101A 		vmov	s14, r1	@ int
 207              		.loc 1 76 0
 208 0056 1188     		ldrh	r1, [r2]
 209 0058 B3F800B0 		ldrh	fp, [r3]
 210              		.loc 1 77 0
 211 005c B2F800A0 		ldrh	r10, [r2]
 212 0060 B3F800C0 		ldrh	ip, [r3]
 213              		.loc 1 79 0
 214 0064 1F88     		ldrh	r7, [r3]
 215              		.loc 1 80 0
 216 0066 1E88     		ldrh	r6, [r3]
 217              		.loc 1 81 0
 218 0068 1D88     		ldrh	r5, [r3]
 219              		.loc 1 75 0
 220 006a B8EEC77A 		vcvt.f32.s32	s14, s14
 221 006e 08EBC404 		add	r4, r8, r4, lsl #3
 222              		.loc 1 76 0
 223 0072 00EBC101 		add	r1, r0, r1, lsl #3
 224              		.loc 1 75 0
 225 0076 84ED007A 		vstr.32	s14, [r4]
 226              		.loc 1 76 0
 227 007a B1F90610 		ldrsh	r1, [r1, #6]
 228              		.loc 1 82 0
ARM GAS  C:\Users\admin\AppData\Local\Temp\cclSroOj.s 			page 5


 229 007e 1C88     		ldrh	r4, [r3]
 230              		.loc 1 76 0
 231 0080 07EE101A 		vmov	s14, r1	@ int
 232              		.loc 1 84 0
 233 0084 1988     		ldrh	r1, [r3]
 234              		.loc 1 76 0
 235 0086 B8EEC77A 		vcvt.f32.s32	s14, s14
 236              		.loc 1 84 0
 237 008a 0131     		adds	r1, r1, #1
 238              		.loc 1 76 0
 239 008c 0EEBCB0B 		add	fp, lr, fp, lsl #3
 240              		.loc 1 77 0
 241 0090 00EBCA0A 		add	r10, r0, r10, lsl #3
 242              		.loc 1 76 0
 243 0094 8BED007A 		vstr.32	s14, [fp]
 244              		.loc 1 84 0
 245 0098 89B2     		uxth	r1, r1
 246 009a 1980     		strh	r1, [r3]	@ movhi
 247              		.loc 1 77 0
 248 009c BAF90410 		ldrsh	r1, [r10, #4]
 249 00a0 07EE101A 		vmov	s14, r1	@ int
 250              		.loc 1 85 0
 251 00a4 1188     		ldrh	r1, [r2]
 252 00a6 0131     		adds	r1, r1, #1
 253 00a8 89B2     		uxth	r1, r1
 254 00aa 1180     		strh	r1, [r2]	@ movhi
 255              		.loc 1 77 0
 256 00ac 4649     		ldr	r1, .L32+16
 257 00ae B8EEC77A 		vcvt.f32.s32	s14, s14
 258              		.loc 1 82 0
 259 00b2 01EBC404 		add	r4, r1, r4, lsl #3
 260              		.loc 1 77 0
 261 00b6 01EBCC0C 		add	ip, r1, ip, lsl #3
 262 00ba 8CED007A 		vstr.32	s14, [ip]
 263              		.loc 1 86 0
 264 00be 1188     		ldrh	r1, [r2]
 265              		.loc 1 82 0
 266 00c0 C4ED017A 		vstr.32	s15, [r4, #4]
 267              		.loc 1 86 0
 268 00c4 019C     		ldr	r4, [sp, #4]
 269              		.loc 1 79 0
 270 00c6 09EBC707 		add	r7, r9, r7, lsl #3
 271              		.loc 1 80 0
 272 00ca 08EBC606 		add	r6, r8, r6, lsl #3
 273              		.loc 1 81 0
 274 00ce 0EEBC505 		add	r5, lr, r5, lsl #3
 275              		.loc 1 86 0
 276 00d2 B4EB810F 		cmp	r4, r1, lsl #2
 277              		.loc 1 79 0
 278 00d6 C7ED017A 		vstr.32	s15, [r7, #4]
 279              		.loc 1 80 0
 280 00da C6ED017A 		vstr.32	s15, [r6, #4]
 281              		.loc 1 81 0
 282 00de C5ED017A 		vstr.32	s15, [r5, #4]
 283              		.loc 1 86 0
 284 00e2 9FDC     		bgt	.L21
 285              		.loc 1 87 0
ARM GAS  C:\Users\admin\AppData\Local\Temp\cclSroOj.s 			page 6


 286 00e4 0023     		movs	r3, #0
 287 00e6 1380     		strh	r3, [r2]	@ movhi
 288              	.LVL11:
 289              	.L20:
 290              		.loc 1 115 0
 291 00e8 334B     		ldr	r3, .L32
 292 00ea 039A     		ldr	r2, [sp, #12]
 293 00ec 1B68     		ldr	r3, [r3]
 294 00ee 9A42     		cmp	r2, r3
 295 00f0 5FD1     		bne	.L30
 296 00f2 05B0     		add	sp, sp, #20
 297              		.cfi_remember_state
 298              		.cfi_def_cfa_offset 36
 299              		@ sp needed
 300 00f4 BDE8F08F 		pop	{r4, r5, r6, r7, r8, r9, r10, fp, pc}
 301              	.LVL12:
 302              	.L29:
 303              		.cfi_restore_state
 304              		.loc 1 95 0
 305 00f8 3449     		ldr	r1, .L32+20
 306 00fa 4FF48060 		mov	r0, #1024
 307              	.LVL13:
 308              		.loc 1 91 0
 309 00fe 0024     		movs	r4, #0
 310 0100 1C80     		strh	r4, [r3]	@ movhi
 311              		.loc 1 95 0
 312 0102 FFF7FEFF 		bl	doFFT_optimized
 313              	.LVL14:
 314              		.loc 1 96 0
 315 0106 3249     		ldr	r1, .L32+24
 316 0108 4FF48060 		mov	r0, #1024
 317 010c FFF7FEFF 		bl	doFFT_optimized
 318              	.LVL15:
 319              		.loc 1 97 0
 320 0110 3049     		ldr	r1, .L32+28
 321 0112 4FF48060 		mov	r0, #1024
 322 0116 FFF7FEFF 		bl	doFFT_optimized
 323              	.LVL16:
 324              		.loc 1 98 0
 325 011a 2B49     		ldr	r1, .L32+16
 326 011c 4FF48060 		mov	r0, #1024
 327 0120 FFF7FEFF 		bl	doFFT_optimized
 328              	.LVL17:
 329              		.loc 1 100 0
 330 0124 4FF48062 		mov	r2, #1024
 331 0128 2B49     		ldr	r1, .L32+32
 332 012a 2848     		ldr	r0, .L32+20
 333 012c FFF7FEFF 		bl	arm_cmplx_mag_f32
 334              	.LVL18:
 335              		.loc 1 101 0
 336 0130 4FF48062 		mov	r2, #1024
 337 0134 2949     		ldr	r1, .L32+36
 338 0136 2648     		ldr	r0, .L32+24
 339 0138 FFF7FEFF 		bl	arm_cmplx_mag_f32
 340              	.LVL19:
 341              		.loc 1 102 0
 342 013c 4FF48062 		mov	r2, #1024
ARM GAS  C:\Users\admin\AppData\Local\Temp\cclSroOj.s 			page 7


 343 0140 2749     		ldr	r1, .L32+40
 344 0142 2448     		ldr	r0, .L32+28
 345 0144 FFF7FEFF 		bl	arm_cmplx_mag_f32
 346              	.LVL20:
 347              		.loc 1 103 0
 348 0148 4FF48062 		mov	r2, #1024
 349 014c 2549     		ldr	r1, .L32+44
 350 014e 1E48     		ldr	r0, .L32+16
 351 0150 FFF7FEFF 		bl	arm_cmplx_mag_f32
 352              	.LVL21:
 353              		.loc 1 105 0
 354 0154 244A     		ldr	r2, .L32+48
 355 0156 1388     		ldrh	r3, [r2]
 356 0158 0133     		adds	r3, r3, #1
 357 015a 9BB2     		uxth	r3, r3
 358 015c 1380     		strh	r3, [r2]	@ movhi
 359              		.loc 1 107 0
 360 015e 1388     		ldrh	r3, [r2]
 361 0160 092B     		cmp	r3, #9
 362 0162 C1D9     		bls	.L20
 363              		.loc 1 108 0
 364 0164 1480     		strh	r4, [r2]	@ movhi
 365              	.LVL22:
 366              	.LBB53:
 367              	.LBB54:
 368              	.LBB55:
 369              	.LBB56:
 370              	.LBB57:
 371              	.LBB58:
 372              	.LBB59:
 373              		.file 2 "../../lib/e-puck2_main-processor/ChibiOS//os/ext/CMSIS/include/core_cmFunc.h"
 374              		.loc 2 546 0
 375 0166 2023     		movs	r3, #32
 376              		.syntax unified
 377              	@ 546 "../../lib/e-puck2_main-processor/ChibiOS//os/ext/CMSIS/include/core_cmFunc.h" 1
 378 0168 83F31188 		MSR basepri, r3
 379              	@ 0 "" 2
 380              	.LVL23:
 381              		.thumb
 382              		.syntax unified
 383              	.LBE59:
 384              	.LBE58:
 385              	.LBE57:
 386              		.file 3 "../../lib/e-puck2_main-processor/ChibiOS//os/rt/include/chsys.h"
 387              		.loc 3 349 0
 388 016c FFF7FEFF 		bl	_stats_start_measure_crit_thd
 389              	.LVL24:
 390              		.loc 3 350 0
 391 0170 FFF7FEFF 		bl	_dbg_check_lock
 392              	.LVL25:
 393              	.LBE56:
 394              	.LBE55:
 395              	.LBB60:
 396              	.LBB61:
 397              		.file 4 "../../lib/e-puck2_main-processor/ChibiOS//os/rt/include/chbsem.h"
 398              		.loc 4 268 0
 399 0174 FFF7FEFF 		bl	chDbgCheckClassI
ARM GAS  C:\Users\admin\AppData\Local\Temp\cclSroOj.s 			page 8


 400              	.LVL26:
 401              		.loc 4 270 0
 402 0178 1C48     		ldr	r0, .L32+52
 403 017a 8368     		ldr	r3, [r0, #8]
 404 017c A342     		cmp	r3, r4
 405 017e 15DD     		ble	.L31
 406              	.L24:
 407              	.LVL27:
 408              	.LBE61:
 409              	.LBE60:
 410              		.loc 4 286 0
 411 0180 FFF7FEFF 		bl	chSchRescheduleS
 412              	.LVL28:
 413              	.LBB63:
 414              	.LBB64:
 415              		.loc 3 360 0
 416 0184 FFF7FEFF 		bl	_dbg_check_unlock
 417              	.LVL29:
 418              		.loc 3 361 0
 419 0188 FFF7FEFF 		bl	_stats_stop_measure_crit_thd
 420              	.LVL30:
 421              		.loc 3 367 0
 422 018c 184B     		ldr	r3, .L32+56
 423 018e 1A68     		ldr	r2, [r3]
 424 0190 9A42     		cmp	r2, r3
 425 0192 07D0     		beq	.L25
 426 0194 9969     		ldr	r1, [r3, #24]
 427 0196 9368     		ldr	r3, [r2, #8]
 428 0198 8A68     		ldr	r2, [r1, #8]
 429 019a 9A42     		cmp	r2, r3
 430 019c 02D2     		bcs	.L25
 431 019e 1548     		ldr	r0, .L32+60
 432 01a0 FFF7FEFF 		bl	chSysHalt
 433              	.LVL31:
 434              	.L25:
 435              	.LBB65:
 436              	.LBB66:
 437              	.LBB67:
 438              		.loc 2 546 0
 439 01a4 0023     		movs	r3, #0
 440              		.syntax unified
 441              	@ 546 "../../lib/e-puck2_main-processor/ChibiOS//os/ext/CMSIS/include/core_cmFunc.h" 1
 442 01a6 83F31188 		MSR basepri, r3
 443              	@ 0 "" 2
 444              	.LVL32:
 445              		.thumb
 446              		.syntax unified
 447 01aa 9DE7     		b	.L20
 448              	.LVL33:
 449              	.L31:
 450              	.LBE67:
 451              	.LBE66:
 452              	.LBE65:
 453              	.LBE64:
 454              	.LBE63:
 455              	.LBB68:
 456              	.LBB62:
ARM GAS  C:\Users\admin\AppData\Local\Temp\cclSroOj.s 			page 9


 457              		.loc 4 271 0
 458 01ac FFF7FEFF 		bl	chSemSignalI
 459              	.LVL34:
 460 01b0 E6E7     		b	.L24
 461              	.LVL35:
 462              	.L30:
 463              	.LBE62:
 464              	.LBE68:
 465              	.LBE54:
 466              	.LBE53:
 467              		.loc 1 115 0
 468 01b2 FFF7FEFF 		bl	__stack_chk_fail
 469              	.LVL36:
 470              	.L33:
 471 01b6 00BF     		.align	2
 472              	.L32:
 473 01b8 00000000 		.word	__stack_chk_guard
 474 01bc 00000000 		.word	.LANCHOR0
 475 01c0 00000000 		.word	.LANCHOR1
 476 01c4 00000000 		.word	0
 477 01c8 00000000 		.word	micBack_cmplx_input
 478 01cc 00000000 		.word	micLeft_cmplx_input
 479 01d0 00000000 		.word	micRight_cmplx_input
 480 01d4 00000000 		.word	micFront_cmplx_input
 481 01d8 00000000 		.word	micLeft_output
 482 01dc 00000000 		.word	micRight_output
 483 01e0 00000000 		.word	micFront_output
 484 01e4 00000000 		.word	micBack_output
 485 01e8 00000000 		.word	.LANCHOR2
 486 01ec 00000000 		.word	.LANCHOR3
 487 01f0 00000000 		.word	ch
 488 01f4 00000000 		.word	.LANCHOR4
 489              		.cfi_endproc
 490              	.LFE291:
 491              		.size	processAudioData, .-processAudioData
 492              		.section	.text.wait_send_to_computer,"ax",%progbits
 493              		.align	1
 494              		.p2align 4,,15
 495              		.global	wait_send_to_computer
 496              		.syntax unified
 497              		.thumb
 498              		.thumb_func
 499              		.fpu fpv4-sp-d16
 500              		.type	wait_send_to_computer, %function
 501              	wait_send_to_computer:
 502              	.LFB292:
 503              		.loc 1 118 0
 504              		.cfi_startproc
 505              		@ args = 0, pretend = 0, frame = 8
 506              		@ frame_needed = 0, uses_anonymous_args = 0
 507 0000 00B5     		push	{lr}
 508              		.cfi_def_cfa_offset 4
 509              		.cfi_offset 14, -4
 510 0002 084B     		ldr	r3, .L39
 511 0004 83B0     		sub	sp, sp, #12
 512              		.cfi_def_cfa_offset 16
 513              		.loc 1 118 0
ARM GAS  C:\Users\admin\AppData\Local\Temp\cclSroOj.s 			page 10


 514 0006 1A68     		ldr	r2, [r3]
 515 0008 0192     		str	r2, [sp, #4]
 516              	.LVL37:
 517              	.LBB69:
 518              	.LBB70:
 519              		.loc 4 143 0
 520 000a 019A     		ldr	r2, [sp, #4]
 521 000c 1B68     		ldr	r3, [r3]
 522 000e 9A42     		cmp	r2, r3
 523 0010 05D1     		bne	.L38
 524 0012 0548     		ldr	r0, .L39+4
 525              	.LBE70:
 526              	.LBE69:
 527              		.loc 1 120 0
 528 0014 03B0     		add	sp, sp, #12
 529              		.cfi_remember_state
 530              		.cfi_def_cfa_offset 4
 531              		@ sp needed
 532 0016 5DF804EB 		ldr	lr, [sp], #4
 533              		.cfi_restore 14
 534              		.cfi_def_cfa_offset 0
 535              	.LBB72:
 536              	.LBB71:
 537              		.loc 4 143 0
 538 001a FFF7FEBF 		b	chSemWait
 539              	.LVL38:
 540              	.L38:
 541              		.cfi_restore_state
 542 001e FFF7FEFF 		bl	__stack_chk_fail
 543              	.LVL39:
 544              	.L40:
 545 0022 00BF     		.align	2
 546              	.L39:
 547 0024 00000000 		.word	__stack_chk_guard
 548 0028 00000000 		.word	.LANCHOR3
 549              	.LBE71:
 550              	.LBE72:
 551              		.cfi_endproc
 552              	.LFE292:
 553              		.size	wait_send_to_computer, .-wait_send_to_computer
 554              		.section	.text.get_audio_buffer_ptr,"ax",%progbits
 555              		.align	1
 556              		.p2align 4,,15
 557              		.global	get_audio_buffer_ptr
 558              		.syntax unified
 559              		.thumb
 560              		.thumb_func
 561              		.fpu fpv4-sp-d16
 562              		.type	get_audio_buffer_ptr, %function
 563              	get_audio_buffer_ptr:
 564              	.LFB293:
 565              		.loc 1 122 0
 566              		.cfi_startproc
 567              		@ args = 0, pretend = 0, frame = 8
 568              		@ frame_needed = 0, uses_anonymous_args = 0
 569              	.LVL40:
 570 0000 00B5     		push	{lr}
ARM GAS  C:\Users\admin\AppData\Local\Temp\cclSroOj.s 			page 11


 571              		.cfi_def_cfa_offset 4
 572              		.cfi_offset 14, -4
 573 0002 164B     		ldr	r3, .L54
 574 0004 83B0     		sub	sp, sp, #12
 575              		.cfi_def_cfa_offset 16
 576              		.loc 1 122 0
 577 0006 1A68     		ldr	r2, [r3]
 578 0008 0192     		str	r2, [sp, #4]
 579              		.loc 1 123 0
 580 000a 88B1     		cbz	r0, .L44
 581              		.loc 1 126 0
 582 000c 0128     		cmp	r0, #1
 583 000e 17D0     		beq	.L45
 584              		.loc 1 129 0
 585 0010 0228     		cmp	r0, #2
 586 0012 19D0     		beq	.L46
 587              		.loc 1 132 0
 588 0014 0328     		cmp	r0, #3
 589 0016 15D0     		beq	.L47
 590              		.loc 1 135 0
 591 0018 0428     		cmp	r0, #4
 592 001a 17D0     		beq	.L48
 593              		.loc 1 138 0
 594 001c 0528     		cmp	r0, #5
 595 001e 17D0     		beq	.L49
 596              	.LVL41:
 597              	.LBB75:
 598              	.LBB76:
 599              		.loc 1 141 0
 600 0020 0628     		cmp	r0, #6
 601 0022 17D0     		beq	.L50
 602              		.loc 1 148 0
 603 0024 0E4A     		ldr	r2, .L54+4
 604              		.loc 1 144 0
 605 0026 0728     		cmp	r0, #7
 606              		.loc 1 148 0
 607 0028 0CBF     		ite	eq
 608 002a 1046     		moveq	r0, r2
 609              	.LVL42:
 610 002c 0020     		movne	r0, #0
 611 002e 00E0     		b	.L41
 612              	.LVL43:
 613              	.L44:
 614              	.LBE76:
 615              	.LBE75:
 616              		.loc 1 124 0
 617 0030 0C48     		ldr	r0, .L54+8
 618              	.LVL44:
 619              	.L41:
 620              		.loc 1 150 0
 621 0032 019A     		ldr	r2, [sp, #4]
 622 0034 1B68     		ldr	r3, [r3]
 623 0036 9A42     		cmp	r2, r3
 624 0038 0ED1     		bne	.L53
 625 003a 03B0     		add	sp, sp, #12
 626              		.cfi_remember_state
 627              		.cfi_def_cfa_offset 4
ARM GAS  C:\Users\admin\AppData\Local\Temp\cclSroOj.s 			page 12


 628              		@ sp needed
 629 003c 5DF804FB 		ldr	pc, [sp], #4
 630              	.LVL45:
 631              	.L45:
 632              		.cfi_restore_state
 633              		.loc 1 127 0
 634 0040 0948     		ldr	r0, .L54+12
 635              	.LVL46:
 636 0042 F6E7     		b	.L41
 637              	.LVL47:
 638              	.L47:
 639              		.loc 1 133 0
 640 0044 0948     		ldr	r0, .L54+16
 641              	.LVL48:
 642 0046 F4E7     		b	.L41
 643              	.LVL49:
 644              	.L46:
 645              		.loc 1 130 0
 646 0048 0948     		ldr	r0, .L54+20
 647              	.LVL50:
 648 004a F2E7     		b	.L41
 649              	.LVL51:
 650              	.L48:
 651              		.loc 1 136 0
 652 004c 0948     		ldr	r0, .L54+24
 653              	.LVL52:
 654 004e F0E7     		b	.L41
 655              	.LVL53:
 656              	.L49:
 657              		.loc 1 139 0
 658 0050 0948     		ldr	r0, .L54+28
 659              	.LVL54:
 660 0052 EEE7     		b	.L41
 661              	.LVL55:
 662              	.L50:
 663              	.LBB78:
 664              	.LBB77:
 665              		.loc 1 142 0
 666 0054 0948     		ldr	r0, .L54+32
 667              	.LVL56:
 668 0056 ECE7     		b	.L41
 669              	.LVL57:
 670              	.L53:
 671              	.LBE77:
 672              	.LBE78:
 673              		.loc 1 150 0
 674 0058 FFF7FEFF 		bl	__stack_chk_fail
 675              	.LVL58:
 676              	.L55:
 677              		.align	2
 678              	.L54:
 679 005c 00000000 		.word	__stack_chk_guard
 680 0060 00000000 		.word	micBack_output
 681 0064 00000000 		.word	micLeft_cmplx_input
 682 0068 00000000 		.word	micRight_cmplx_input
 683 006c 00000000 		.word	micBack_cmplx_input
 684 0070 00000000 		.word	micFront_cmplx_input
ARM GAS  C:\Users\admin\AppData\Local\Temp\cclSroOj.s 			page 13


 685 0074 00000000 		.word	micLeft_output
 686 0078 00000000 		.word	micRight_output
 687 007c 00000000 		.word	micFront_output
 688              		.cfi_endproc
 689              	.LFE293:
 690              		.size	get_audio_buffer_ptr, .-get_audio_buffer_ptr
 691              		.section	.bss.data_index.14174,"aw",%nobits
 692              		.align	1
 693              		.set	.LANCHOR0,. + 0
 694              		.type	data_index.14174, %object
 695              		.size	data_index.14174, 2
 696              	data_index.14174:
 697 0000 0000     		.space	2
 698              		.section	.bss.fft_index.14173,"aw",%nobits
 699              		.align	1
 700              		.set	.LANCHOR1,. + 0
 701              		.type	fft_index.14173, %object
 702              		.size	fft_index.14173, 2
 703              	fft_index.14173:
 704 0000 0000     		.space	2
 705              		.section	.bss.micBack_cmplx_input,"aw",%nobits
 706              		.align	2
 707              		.type	micBack_cmplx_input, %object
 708              		.size	micBack_cmplx_input, 8192
 709              	micBack_cmplx_input:
 710 0000 00000000 		.space	8192
 710      00000000 
 710      00000000 
 710      00000000 
 710      00000000 
 711              		.section	.bss.micBack_output,"aw",%nobits
 712              		.align	2
 713              		.type	micBack_output, %object
 714              		.size	micBack_output, 4096
 715              	micBack_output:
 716 0000 00000000 		.space	4096
 716      00000000 
 716      00000000 
 716      00000000 
 716      00000000 
 717              		.section	.bss.micFront_cmplx_input,"aw",%nobits
 718              		.align	2
 719              		.type	micFront_cmplx_input, %object
 720              		.size	micFront_cmplx_input, 8192
 721              	micFront_cmplx_input:
 722 0000 00000000 		.space	8192
 722      00000000 
 722      00000000 
 722      00000000 
 722      00000000 
 723              		.section	.bss.micFront_output,"aw",%nobits
 724              		.align	2
 725              		.type	micFront_output, %object
 726              		.size	micFront_output, 4096
 727              	micFront_output:
 728 0000 00000000 		.space	4096
 728      00000000 
ARM GAS  C:\Users\admin\AppData\Local\Temp\cclSroOj.s 			page 14


 728      00000000 
 728      00000000 
 728      00000000 
 729              		.section	.bss.micLeft_cmplx_input,"aw",%nobits
 730              		.align	2
 731              		.type	micLeft_cmplx_input, %object
 732              		.size	micLeft_cmplx_input, 8192
 733              	micLeft_cmplx_input:
 734 0000 00000000 		.space	8192
 734      00000000 
 734      00000000 
 734      00000000 
 734      00000000 
 735              		.section	.bss.micLeft_output,"aw",%nobits
 736              		.align	2
 737              		.type	micLeft_output, %object
 738              		.size	micLeft_output, 4096
 739              	micLeft_output:
 740 0000 00000000 		.space	4096
 740      00000000 
 740      00000000 
 740      00000000 
 740      00000000 
 741              		.section	.bss.micRight_cmplx_input,"aw",%nobits
 742              		.align	2
 743              		.type	micRight_cmplx_input, %object
 744              		.size	micRight_cmplx_input, 8192
 745              	micRight_cmplx_input:
 746 0000 00000000 		.space	8192
 746      00000000 
 746      00000000 
 746      00000000 
 746      00000000 
 747              		.section	.bss.micRight_output,"aw",%nobits
 748              		.align	2
 749              		.type	micRight_output, %object
 750              		.size	micRight_output, 4096
 751              	micRight_output:
 752 0000 00000000 		.space	4096
 752      00000000 
 752      00000000 
 752      00000000 
 752      00000000 
 753              		.section	.bss.must_send.14175,"aw",%nobits
 754              		.align	1
 755              		.set	.LANCHOR2,. + 0
 756              		.type	must_send.14175, %object
 757              		.size	must_send.14175, 2
 758              	must_send.14175:
 759 0000 0000     		.space	2
 760              		.section	.data.sendToComputer_sem,"aw",%progbits
 761              		.align	2
 762              		.set	.LANCHOR3,. + 0
 763              		.type	sendToComputer_sem, %object
 764              		.size	sendToComputer_sem, 12
 765              	sendToComputer_sem:
 766 0000 00000000 		.word	sendToComputer_sem
ARM GAS  C:\Users\admin\AppData\Local\Temp\cclSroOj.s 			page 15


 767 0004 00000000 		.word	sendToComputer_sem
 768 0008 00000000 		.word	0
 769              		.section	.rodata.__func__.7153,"a",%progbits
 770              		.align	2
 771              		.set	.LANCHOR4,. + 0
 772              		.type	__func__.7153, %object
 773              		.size	__func__.7153, 12
 774              	__func__.7153:
 775 0000 63685379 		.ascii	"chSysUnlock\000"
 775      73556E6C 
 775      6F636B00 
 776              		.text
 777              	.Letext0:
 778              		.file 5 "c:\\users\\admin\\desktop\\microinfo\\eclipse_e-puck2\\tools\\gcc-arm-none-eabi-7-2017-q4
 779              		.file 6 "c:\\users\\admin\\desktop\\microinfo\\eclipse_e-puck2\\tools\\gcc-arm-none-eabi-7-2017-q4
 780              		.file 7 "c:\\users\\admin\\desktop\\microinfo\\eclipse_e-puck2\\tools\\gcc-arm-none-eabi-7-2017-q4
 781              		.file 8 "../../lib/e-puck2_main-processor/ChibiOS//os/rt/ports/ARMCMx/compilers/GCC/chtypes.h"
 782              		.file 9 "../../lib/e-puck2_main-processor/ChibiOS//os/rt/include/chsystypes.h"
 783              		.file 10 "../../lib/e-puck2_main-processor/ChibiOS//os/rt/include/chschd.h"
 784              		.file 11 "../../lib/e-puck2_main-processor/ChibiOS//os/ext/CMSIS/include/core_cm4.h"
 785              		.file 12 "../../lib/e-puck2_main-processor/ChibiOS//os/ext/CMSIS/ST/system_stm32f4xx.h"
 786              		.file 13 "../../lib/e-puck2_main-processor/ChibiOS//os/ext/CMSIS/ST/stm32f407xx.h"
 787              		.file 14 "../../lib/e-puck2_main-processor/ChibiOS//os/rt/ports/ARMCMx/chcore.h"
 788              		.file 15 "../../lib/e-puck2_main-processor/ChibiOS//os/rt/ports/ARMCMx/chcore_v7m.h"
 789              		.file 16 "../../lib/e-puck2_main-processor/ChibiOS//os/rt/include/chdebug.h"
 790              		.file 17 "../../lib/e-puck2_main-processor/ChibiOS//os/rt/include/chtm.h"
 791              		.file 18 "../../lib/e-puck2_main-processor/ChibiOS//os/rt/include/chstats.h"
 792              		.file 19 "../../lib/e-puck2_main-processor/ChibiOS//os/rt/include/chsem.h"
 793              		.file 20 "../../lib/e-puck2_main-processor/ChibiOS//os/rt/include/chmtx.h"
 794              		.file 21 "../../lib/e-puck2_main-processor/ChibiOS//os/rt/include/chregistry.h"
 795              		.file 22 "../../lib/e-puck2_main-processor/ChibiOS//os/rt/include/chevents.h"
 796              		.file 23 "../../lib/e-puck2_main-processor/ChibiOS//os/rt/include/chqueues.h"
 797              		.file 24 "../../lib/e-puck2_main-processor/ChibiOS//os/hal/ports/STM32/STM32F4xx/stm32_dma.h"
 798              		.file 25 "../../lib/e-puck2_main-processor/ChibiOS//os/hal/include/hal_ioblock.h"
 799              		.file 26 "../../lib/e-puck2_main-processor/ChibiOS//os/hal/ports/STM32/LLD/GPIOv2/pal_lld.h"
 800              		.file 27 "../../lib/e-puck2_main-processor/ChibiOS//os/hal/include/adc.h"
 801              		.file 28 "../../lib/e-puck2_main-processor/ChibiOS//os/hal/ports/STM32/STM32F4xx/adc_lld.h"
 802              		.file 29 "../../lib/e-puck2_main-processor/ChibiOS//os/hal/include/can.h"
 803              		.file 30 "../../lib/e-puck2_main-processor/ChibiOS//os/hal/ports/STM32/LLD/can_lld.h"
 804              		.file 31 "../../lib/e-puck2_main-processor/ChibiOS//os/hal/include/dac.h"
 805              		.file 32 "../../lib/e-puck2_main-processor/ChibiOS//os/hal/ports/STM32/LLD/DACv1/dac_lld.h"
 806              		.file 33 "../../lib/e-puck2_main-processor/ChibiOS//os/hal/include/ext.h"
 807              		.file 34 "../../lib/e-puck2_main-processor/ChibiOS//os/hal/ports/STM32/LLD/ext_lld.h"
 808              		.file 35 "../../lib/e-puck2_main-processor/ChibiOS//os/hal/include/gpt.h"
 809              		.file 36 "../../lib/e-puck2_main-processor/ChibiOS//os/hal/ports/STM32/LLD/TIMv1/gpt_lld.h"
 810              		.file 37 "../../lib/e-puck2_main-processor/ChibiOS//os/hal/ports/STM32/LLD/TIMv1/stm32_tim.h"
 811              		.file 38 "../../lib/e-puck2_main-processor/ChibiOS//os/hal/include/i2c.h"
 812              		.file 39 "../../lib/e-puck2_main-processor/ChibiOS//os/hal/ports/STM32/LLD/I2Cv1/i2c_lld.h"
 813              		.file 40 "../../lib/e-puck2_main-processor/ChibiOS//os/hal/include/i2s.h"
 814              		.file 41 "../../lib/e-puck2_main-processor/ChibiOS//os/hal/ports/STM32/LLD/SPIv1/i2s_lld.h"
 815              		.file 42 "../../lib/e-puck2_main-processor/ChibiOS//os/hal/include/pwm.h"
 816              		.file 43 "../../lib/e-puck2_main-processor/ChibiOS//os/hal/ports/STM32/LLD/TIMv1/pwm_lld.h"
 817              		.file 44 "../../lib/e-puck2_main-processor/ChibiOS//os/hal/include/serial.h"
 818              		.file 45 "../../lib/e-puck2_main-processor/ChibiOS//os/hal/ports/STM32/LLD/USARTv1/serial_lld.h"
 819              		.file 46 "../../lib/e-puck2_main-processor/ChibiOS//os/hal/include/sdc.h"
 820              		.file 47 "../../lib/e-puck2_main-processor/ChibiOS//os/hal/ports/STM32/LLD/sdc_lld.h"
 821              		.file 48 "../../lib/e-puck2_main-processor/ChibiOS//os/hal/include/spi.h"
ARM GAS  C:\Users\admin\AppData\Local\Temp\cclSroOj.s 			page 16


 822              		.file 49 "../../lib/e-puck2_main-processor/ChibiOS//os/hal/ports/STM32/LLD/SPIv1/spi_lld.h"
 823              		.file 50 "../../lib/e-puck2_main-processor/ChibiOS//os/hal/include/usb.h"
 824              		.file 51 "../../lib/e-puck2_main-processor/ChibiOS//os/hal/ports/STM32/LLD/OTGv1/usb_lld.h"
 825              		.file 52 "../../lib/e-puck2_main-processor/ChibiOS//os/hal/ports/STM32/LLD/OTGv1/stm32_otg.h"
 826              		.file 53 "../../lib/e-puck2_main-processor/ChibiOS//os/hal/include/serial_usb.h"
 827              		.file 54 "../../lib/e-puck2_main-processor/ChibiOS_ext/os/hal/include/../ports/STM32/STM32F4xx/dcm
 828              		.file 55 "c:\\users\\admin\\desktop\\microinfo\\eclipse_e-puck2\\tools\\gcc-arm-none-eabi-7-2017-q
 829              		.file 56 "c:\\users\\admin\\desktop\\microinfo\\eclipse_e-puck2\\tools\\gcc-arm-none-eabi-7-2017-q
 830              		.file 57 "c:\\users\\admin\\desktop\\microinfo\\eclipse_e-puck2\\tools\\gcc-arm-none-eabi-7-2017-q
 831              		.file 58 "../../lib/e-puck2_main-processor/src/msgbus/messagebus.h"
 832              		.file 59 "c:\\users\\admin\\desktop\\microinfo\\eclipse_e-puck2\\tools\\gcc-arm-none-eabi-7-2017-q
 833              		.file 60 "c:\\users\\admin\\desktop\\microinfo\\eclipse_e-puck2\\tools\\gcc-arm-none-eabi-7-2017-q
 834              		.file 61 "../../lib/e-puck2_main-processor/src/parameter/parameter.h"
 835              		.file 62 "./main.h"
 836              		.file 63 "../../lib/e-puck2_main-processor/src/usbcfg.h"
 837              		.file 64 "./audio_processing.h"
 838              		.file 65 "c:\\users\\admin\\desktop\\microinfo\\eclipse_e-puck2\\tools\\gcc-arm-none-eabi-7-2017-q
 839              		.file 66 "./fft.h"
 840              		.file 67 "../../lib/e-puck2_main-processor/ChibiOS//os/ext/CMSIS/include/arm_math.h"
 841              		.file 68 "../../lib/e-puck2_main-processor/src/motors.h"